; Function Attrs: nounwind uwtable
define hidden i32 @SDL_GetRealGamepadType_REAL(ptr noundef %0) local_unnamed_addr #0 {
  tail call void @SDL_LockJoysticks_REAL() #10
  %2 = tail call zeroext i1 @SDL_ObjectValid(ptr noundef %0, i32 noundef 5) #10
  br i1 %2, label %3, label %SDL_GetGamepadJoystick_REAL.exit.thread

3:                                                ; preds = %1
  %4 = load ptr, ptr %0, align 8
  %5 = tail call zeroext i1 @SDL_IsJoystickValid(ptr noundef %4) #10
  br i1 %5, label %SDL_GetGamepadJoystick_REAL.exit, label %SDL_GetGamepadJoystick_REAL.exit.thread

SDL_GetGamepadJoystick_REAL.exit.thread:          ; preds = %1, %3
  %6 = tail call zeroext i1 (ptr, ...) @SDL_SetError_REAL(ptr noundef nonnull @.str.4, ptr noundef nonnull @.str.5) #10
  tail call void @SDL_UnlockJoysticks_REAL() #10
  br label %14

SDL_GetGamepadJoystick_REAL.exit:                 ; preds = %3
  %7 = load ptr, ptr %0, align 8
  tail call void @SDL_UnlockJoysticks_REAL() #10
  %.not = icmp eq ptr %7, null
  br i1 %.not, label %14, label %8

8:                                                ; preds = %SDL_GetGamepadJoystick_REAL.exit
  %9 = tail call { i64, i64 } @SDL_GetJoystickGUID_REAL(ptr noundef nonnull %7) #10
  %10 = extractvalue { i64, i64 } %9, 0
  %11 = extractvalue { i64, i64 } %9, 1
  %12 = tail call ptr @SDL_GetJoystickName_REAL(ptr noundef nonnull %7) #10
  %13 = tail call i32 @SDL_GetGamepadTypeFromGUID(i64 %10, i64 %11, ptr noundef %12) #10
  br label %14

14:                                               ; preds = %SDL_GetGamepadJoystick_REAL.exit.thread, %SDL_GetGamepadJoystick_REAL.exit, %8
  %.0 = phi i32 [ %13, %8 ], [ 0, %SDL_GetGamepadJoystick_REAL.exit ], [ 0, %SDL_GetGamepadJoystick_REAL.exit.thread ]
  ret i32 %.0
}